target datalayout = "e-m:e-p270:32:32-p271:32:32-p272:64:64-i64:64-i128:128-f80:128-n8:16:32:64-S128"
target triple = "x86_64-pc-linux-gnu"

%struct.DdManager = type { %struct.DdNode, ptr, ptr, ptr, ptr, ptr, ptr, ptr, i32, i32, double, double, double, i32, i32, i32, i32, i32, i32, ptr, ptr, %struct.DdSubtable, i32, i32, i32, i32, i32, i32, i32, double, i32, i32, i32, ptr, i64, double, i32, ptr, ptr, ptr, ptr, ptr, ptr, ptr, i32, ptr, ptr, ptr, ptr, ptr, ptr, i32, i32, i32, double, i32, i32, i32, i32, double, double, i32, i32, i32, i32, i32, i32, i32, i32, i32, ptr, ptr, i32, i32, i32, i32, i32, i32, ptr, ptr, ptr, ptr, ptr, ptr, ptr, ptr, i32, i64, i64, i64, i32, i64, i64, double, double, double, double, double, double, i32, ptr, ptr, i64 }
%struct.DdNode = type { i32, i32, ptr, %union.anon, i64 }
%union.anon = type { %struct.DdChildren }
%struct.DdChildren = type { ptr, ptr }
%struct.DdSubtable = type { ptr, i32, i32, i32, i32, i32, i32, i32, i32, i32, i32, i32 }
%struct.Aig_Obj_t_ = type { %union.anon.0, ptr, ptr, i64, i32, i32, %union.anon.1 }
%union.anon.0 = type { ptr }
%union.anon.1 = type { ptr }
%struct.Vec_Ptr_t_ = type { i32, i32, ptr }
%struct.Llb_Man_t_ = type { ptr, ptr, ptr, ptr, ptr, ptr, ptr, ptr, ptr, ptr, ptr, ptr, ptr, ptr, ptr, ptr, ptr }
%struct.Llb_Grp_t_ = type { i32, ptr, ptr, ptr, ptr, ptr, ptr }
%struct.Vec_Int_t_ = type { i32, i32, ptr }

; Function Attrs: nounwind uwtable
define internal i32 @Vec_IntEntry(ptr noundef %0, i32 noundef %1) #0 {
  %3 = alloca ptr, align 8
  %4 = alloca i32, align 4
  store ptr %0, ptr %3, align 8
  store i32 %1, ptr %4, align 4
  %5 = load ptr, ptr %3, align 8
  %6 = getelementptr inbounds %struct.Vec_Int_t_, ptr %5, i32 0, i32 2
  %7 = load ptr, ptr %6, align 8
  %8 = load i32, ptr %4, align 4
  %9 = sext i32 %8 to i64
  %10 = getelementptr inbounds i32, ptr %7, i64 %9
  %11 = load i32, ptr %10, align 4
  ret i32 %11
}

; Function Attrs: nounwind uwtable
define internal i32 @Aig_ObjId(ptr noundef %0) #0 {
  %2 = alloca ptr, align 8
  store ptr %0, ptr %2, align 8
  %3 = load ptr, ptr %2, align 8
  %4 = getelementptr inbounds %struct.Aig_Obj_t_, ptr %3, i32 0, i32 5
  %5 = load i32, ptr %4, align 4
  ret i32 %5
}

; Function Attrs: nounwind uwtable
define internal ptr @Vec_PtrEntry(ptr noundef %0, i32 noundef %1) #0 {
  %3 = alloca ptr, align 8
  %4 = alloca i32, align 4
  store ptr %0, ptr %3, align 8
  store i32 %1, ptr %4, align 4
  %5 = load ptr, ptr %3, align 8
  %6 = getelementptr inbounds %struct.Vec_Ptr_t_, ptr %5, i32 0, i32 2
  %7 = load ptr, ptr %6, align 8
  %8 = load i32, ptr %4, align 4
  %9 = sext i32 %8 to i64
  %10 = getelementptr inbounds ptr, ptr %7, i64 %9
  %11 = load ptr, ptr %10, align 8
  ret ptr %11
}

; Function Attrs: nounwind uwtable
define internal i32 @Vec_PtrSize(ptr noundef %0) #0 {
  %2 = alloca ptr, align 8
  store ptr %0, ptr %2, align 8
  %3 = load ptr, ptr %2, align 8
  %4 = getelementptr inbounds %struct.Vec_Ptr_t_, ptr %3, i32 0, i32 1
  %5 = load i32, ptr %4, align 4
  ret i32 %5
}

; Function Attrs: nounwind uwtable
define ptr @Llb_ManConstructQuantCubeFwd(ptr noundef %0, ptr noundef %1, i32 noundef %2) #0 {
  %4 = alloca ptr, align 8
  %5 = alloca ptr, align 8
  %6 = alloca i32, align 4
  %7 = alloca ptr, align 8
  %8 = alloca ptr, align 8
  %9 = alloca ptr, align 8
  %10 = alloca ptr, align 8
  %11 = alloca i32, align 4
  %12 = alloca i32, align 4
  %13 = alloca i64, align 8
  store ptr %0, ptr %4, align 8
  store ptr %1, ptr %5, align 8
  store i32 %2, ptr %6, align 4
  %14 = load ptr, ptr %4, align 8
  %15 = getelementptr inbounds %struct.Llb_Man_t_, ptr %14, i32 0, i32 3
  %16 = load ptr, ptr %15, align 8
  %17 = getelementptr inbounds %struct.DdManager, ptr %16, i32 0, i32 102
  %18 = load i64, ptr %17, align 8
  store i64 %18, ptr %13, align 8
  %19 = load ptr, ptr %4, align 8
  %20 = getelementptr inbounds %struct.Llb_Man_t_, ptr %19, i32 0, i32 3
  %21 = load ptr, ptr %20, align 8
  %22 = getelementptr inbounds %struct.DdManager, ptr %21, i32 0, i32 102
  store i64 0, ptr %22, align 8
  %23 = load ptr, ptr %4, align 8
  %24 = getelementptr inbounds %struct.Llb_Man_t_, ptr %23, i32 0, i32 3
  %25 = load ptr, ptr %24, align 8
  %26 = call ptr @Cudd_ReadOne(ptr noundef %25)
  store ptr %26, ptr %8, align 8
  %27 = load ptr, ptr %8, align 8
  call void @Cudd_Ref(ptr noundef %27)
  store i32 0, ptr %11, align 4
  br label %28

28:                                               ; preds = %76, %3
  %29 = load i32, ptr %11, align 4
  %30 = load ptr, ptr %5, align 8
  %31 = getelementptr inbounds %struct.Llb_Grp_t_, ptr %30, i32 0, i32 1
  %32 = load ptr, ptr %31, align 8
  %33 = call i32 @Vec_PtrSize(ptr noundef %32)
  %34 = icmp slt i32 %29, %33
  br i1 %34, label %35, label %41

35:                                               ; preds = %28
  %36 = load ptr, ptr %5, align 8
  %37 = getelementptr inbounds %struct.Llb_Grp_t_, ptr %36, i32 0, i32 1
  %38 = load ptr, ptr %37, align 8
  %39 = load i32, ptr %11, align 4
  %40 = call ptr @Vec_PtrEntry(ptr noundef %38, i32 noundef %39)
  store ptr %40, ptr %7, align 8
  br label %41

41:                                               ; preds = %35, %28
  %42 = phi i1 [ false, %28 ], [ true, %35 ]
  br i1 %42, label %43, label %79

43:                                               ; preds = %41
  %44 = load ptr, ptr %4, align 8
  %45 = getelementptr inbounds %struct.Llb_Man_t_, ptr %44, i32 0, i32 12
  %46 = load ptr, ptr %45, align 8
  %47 = load ptr, ptr %7, align 8
  %48 = call i32 @Aig_ObjId(ptr noundef %47)
  %49 = call i32 @Vec_IntEntry(ptr noundef %46, i32 noundef %48)
  store i32 %49, ptr %12, align 4
  %50 = load i32, ptr %12, align 4
  %51 = load i32, ptr %6, align 4
  %52 = icmp sgt i32 %50, %51
  br i1 %52, label %53, label %54

53:                                               ; preds = %43
  br label %76

54:                                               ; preds = %43
  %55 = load ptr, ptr %4, align 8
  %56 = getelementptr inbounds %struct.Llb_Man_t_, ptr %55, i32 0, i32 3
  %57 = load ptr, ptr %56, align 8
  %58 = load ptr, ptr %4, align 8
  %59 = getelementptr inbounds %struct.Llb_Man_t_, ptr %58, i32 0, i32 6
  %60 = load ptr, ptr %59, align 8
  %61 = load ptr, ptr %7, align 8
  %62 = call i32 @Aig_ObjId(ptr noundef %61)
  %63 = call i32 @Vec_IntEntry(ptr noundef %60, i32 noundef %62)
  %64 = call ptr @Cudd_bddIthVar(ptr noundef %57, i32 noundef %63)
  store ptr %64, ptr %10, align 8
  %65 = load ptr, ptr %4, align 8
  %66 = getelementptr inbounds %struct.Llb_Man_t_, ptr %65, i32 0, i32 3
  %67 = load ptr, ptr %66, align 8
  %68 = load ptr, ptr %8, align 8
  store ptr %68, ptr %9, align 8
  %69 = load ptr, ptr %10, align 8
  %70 = call ptr @Cudd_bddAnd(ptr noundef %67, ptr noundef %68, ptr noundef %69)
  store ptr %70, ptr %8, align 8
  %71 = load ptr, ptr %8, align 8
  call void @Cudd_Ref(ptr noundef %71)
  %72 = load ptr, ptr %4, align 8
  %73 = getelementptr inbounds %struct.Llb_Man_t_, ptr %72, i32 0, i32 3
  %74 = load ptr, ptr %73, align 8
  %75 = load ptr, ptr %9, align 8
  call void @Cudd_RecursiveDeref(ptr noundef %74, ptr noundef %75)
  br label %76

76:                                               ; preds = %54, %53
  %77 = load i32, ptr %11, align 4
  %78 = add nsw i32 %77, 1
  store i32 %78, ptr %11, align 4
  br label %28, !llvm.loop !15

79:                                               ; preds = %41
  store i32 0, ptr %11, align 4
  br label %80

80:                                               ; preds = %128, %79
  %81 = load i32, ptr %11, align 4
  %82 = load ptr, ptr %5, align 8
  %83 = getelementptr inbounds %struct.Llb_Grp_t_, ptr %82, i32 0, i32 2
  %84 = load ptr, ptr %83, align 8
  %85 = call i32 @Vec_PtrSize(ptr noundef %84)
  %86 = icmp slt i32 %81, %85
  br i1 %86, label %87, label %93

87:                                               ; preds = %80
  %88 = load ptr, ptr %5, align 8
  %89 = getelementptr inbounds %struct.Llb_Grp_t_, ptr %88, i32 0, i32 2
  %90 = load ptr, ptr %89, align 8
  %91 = load i32, ptr %11, align 4
  %92 = call ptr @Vec_PtrEntry(ptr noundef %90, i32 noundef %91)
  store ptr %92, ptr %7, align 8
  br label %93

93:                                               ; preds = %87, %80
  %94 = phi i1 [ false, %80 ], [ true, %87 ]
  br i1 %94, label %95, label %131

95:                                               ; preds = %93
  %96 = load ptr, ptr %4, align 8
  %97 = getelementptr inbounds %struct.Llb_Man_t_, ptr %96, i32 0, i32 12
  %98 = load ptr, ptr %97, align 8
  %99 = load ptr, ptr %7, align 8
  %100 = call i32 @Aig_ObjId(ptr noundef %99)
  %101 = call i32 @Vec_IntEntry(ptr noundef %98, i32 noundef %100)
  store i32 %101, ptr %12, align 4
  %102 = load i32, ptr %12, align 4
  %103 = load i32, ptr %6, align 4
  %104 = icmp sgt i32 %102, %103
  br i1 %104, label %105, label %106

105:                                              ; preds = %95
  br label %128

106:                                              ; preds = %95
  %107 = load ptr, ptr %4, align 8
  %108 = getelementptr inbounds %struct.Llb_Man_t_, ptr %107, i32 0, i32 3
  %109 = load ptr, ptr %108, align 8
  %110 = load ptr, ptr %4, align 8
  %111 = getelementptr inbounds %struct.Llb_Man_t_, ptr %110, i32 0, i32 6
  %112 = load ptr, ptr %111, align 8
  %113 = load ptr, ptr %7, align 8
  %114 = call i32 @Aig_ObjId(ptr noundef %113)
  %115 = call i32 @Vec_IntEntry(ptr noundef %112, i32 noundef %114)
  %116 = call ptr @Cudd_bddIthVar(ptr noundef %109, i32 noundef %115)
  store ptr %116, ptr %10, align 8
  %117 = load ptr, ptr %4, align 8
  %118 = getelementptr inbounds %struct.Llb_Man_t_, ptr %117, i32 0, i32 3
  %119 = load ptr, ptr %118, align 8
  %120 = load ptr, ptr %8, align 8
  store ptr %120, ptr %9, align 8
  %121 = load ptr, ptr %10, align 8
  %122 = call ptr @Cudd_bddAnd(ptr noundef %119, ptr noundef %120, ptr noundef %121)
  store ptr %122, ptr %8, align 8
  %123 = load ptr, ptr %8, align 8
  call void @Cudd_Ref(ptr noundef %123)
  %124 = load ptr, ptr %4, align 8
  %125 = getelementptr inbounds %struct.Llb_Man_t_, ptr %124, i32 0, i32 3
  %126 = load ptr, ptr %125, align 8
  %127 = load ptr, ptr %9, align 8
  call void @Cudd_RecursiveDeref(ptr noundef %126, ptr noundef %127)
  br label %128

128:                                              ; preds = %106, %105
  %129 = load i32, ptr %11, align 4
  %130 = add nsw i32 %129, 1
  store i32 %130, ptr %11, align 4
  br label %80, !llvm.loop !16

131:                                              ; preds = %93
  %132 = load ptr, ptr %8, align 8
  call void @Cudd_Deref(ptr noundef %132)
  %133 = load i64, ptr %13, align 8
  %134 = load ptr, ptr %4, align 8
  %135 = getelementptr inbounds %struct.Llb_Man_t_, ptr %134, i32 0, i32 3
  %136 = load ptr, ptr %135, align 8
  %137 = getelementptr inbounds %struct.DdManager, ptr %136, i32 0, i32 102
  store i64 %133, ptr %137, align 8
  %138 = load ptr, ptr %8, align 8
  ret ptr %138
}