; Function Attrs: nounwind uwtable
define noundef ptr @Llb_ManConstructQuantCubeFwd(ptr noundef readonly captures(none) %0, ptr noundef readonly captures(none) %1, i32 noundef %2) local_unnamed_addr #0 {
  %4 = getelementptr inbounds nuw i8, ptr %0, i64 24
  %5 = load ptr, ptr %4, align 8
  %6 = getelementptr inbounds nuw i8, ptr %5, i64 752
  %7 = load i64, ptr %6, align 8
  store i64 0, ptr %6, align 8
  %8 = load ptr, ptr %4, align 8
  %9 = tail call ptr @Cudd_ReadOne(ptr noundef %8) #12
  tail call void @Cudd_Ref(ptr noundef %9) #12
  %10 = getelementptr inbounds nuw i8, ptr %1, i64 8
  %11 = load ptr, ptr %10, align 8
  %12 = getelementptr i8, ptr %11, i64 4
  %.val4758 = load i32, ptr %12, align 4
  %13 = icmp sgt i32 %.val4758, 0
  br i1 %13, label %.lr.ph, label %.critedge.preheader

.lr.ph:                                           ; preds = %3
  %14 = getelementptr inbounds nuw i8, ptr %0, i64 96
  %15 = getelementptr inbounds nuw i8, ptr %0, i64 48
  br label %22

.critedge.preheader:                              ; preds = %44, %3
  %.045.lcssa = phi ptr [ %9, %3 ], [ %.146, %44 ]
  %16 = getelementptr inbounds nuw i8, ptr %1, i64 16
  %17 = load ptr, ptr %16, align 8
  %18 = getelementptr i8, ptr %17, i64 4
  %.val61 = load i32, ptr %18, align 4
  %19 = icmp sgt i32 %.val61, 0
  br i1 %19, label %.lr.ph64, label %.critedge2

.lr.ph64:                                         ; preds = %.critedge.preheader
  %20 = getelementptr inbounds nuw i8, ptr %0, i64 96
  %21 = getelementptr inbounds nuw i8, ptr %0, i64 48
  br label %49

22:                                               ; preds = %.lr.ph, %44
  %23 = phi ptr [ %11, %.lr.ph ], [ %45, %44 ]
  %indvars.iv = phi i64 [ 0, %.lr.ph ], [ %indvars.iv.next, %44 ]
  %.04559 = phi ptr [ %9, %.lr.ph ], [ %.146, %44 ]
  %24 = getelementptr i8, ptr %23, i64 8
  %.val49 = load ptr, ptr %24, align 8
  %25 = getelementptr inbounds nuw ptr, ptr %.val49, i64 %indvars.iv
  %26 = load ptr, ptr %25, align 8
  %27 = load ptr, ptr %14, align 8
  %28 = getelementptr i8, ptr %26, i64 36
  %.val53 = load i32, ptr %28, align 4
  %29 = getelementptr i8, ptr %27, i64 8
  %.val57 = load ptr, ptr %29, align 8
  %30 = sext i32 %.val53 to i64
  %31 = getelementptr inbounds i32, ptr %.val57, i64 %30
  %32 = load i32, ptr %31, align 4
  %33 = icmp sgt i32 %32, %2
  br i1 %33, label %44, label %34

34:                                               ; preds = %22
  %35 = load ptr, ptr %4, align 8
  %36 = load ptr, ptr %15, align 8
  %37 = getelementptr i8, ptr %36, i64 8
  %.val56 = load ptr, ptr %37, align 8
  %38 = getelementptr inbounds i32, ptr %.val56, i64 %30
  %39 = load i32, ptr %38, align 4
  %40 = tail call ptr @Cudd_bddIthVar(ptr noundef %35, i32 noundef %39) #12
  %41 = load ptr, ptr %4, align 8
  %42 = tail call ptr @Cudd_bddAnd(ptr noundef %41, ptr noundef %.04559, ptr noundef %40) #12
  tail call void @Cudd_Ref(ptr noundef %42) #12
  %43 = load ptr, ptr %4, align 8
  tail call void @Cudd_RecursiveDeref(ptr noundef %43, ptr noundef %.04559) #12
  %.pre = load ptr, ptr %10, align 8
  br label %44

44:                                               ; preds = %22, %34
  %45 = phi ptr [ %23, %22 ], [ %.pre, %34 ]
  %.146 = phi ptr [ %.04559, %22 ], [ %42, %34 ]
  %indvars.iv.next = add nuw nsw i64 %indvars.iv, 1
  %46 = getelementptr i8, ptr %45, i64 4
  %.val47 = load i32, ptr %46, align 4
  %47 = sext i32 %.val47 to i64
  %48 = icmp slt i64 %indvars.iv.next, %47
  br i1 %48, label %22, label %.critedge.preheader, !llvm.loop !15

49:                                               ; preds = %.lr.ph64, %.critedge
  %50 = phi ptr [ %17, %.lr.ph64 ], [ %71, %.critedge ]
  %indvars.iv67 = phi i64 [ 0, %.lr.ph64 ], [ %indvars.iv.next68, %.critedge ]
  %.262 = phi ptr [ %.045.lcssa, %.lr.ph64 ], [ %.3, %.critedge ]
  %51 = getelementptr i8, ptr %50, i64 8
  %.val48 = load ptr, ptr %51, align 8
  %52 = getelementptr inbounds nuw ptr, ptr %.val48, i64 %indvars.iv67
  %53 = load ptr, ptr %52, align 8
  %54 = load ptr, ptr %20, align 8
  %55 = getelementptr i8, ptr %53, i64 36
  %.val51 = load i32, ptr %55, align 4
  %56 = getelementptr i8, ptr %54, i64 8
  %.val55 = load ptr, ptr %56, align 8
  %57 = sext i32 %.val51 to i64
  %58 = getelementptr inbounds i32, ptr %.val55, i64 %57
  %59 = load i32, ptr %58, align 4
  %60 = icmp sgt i32 %59, %2
  br i1 %60, label %.critedge, label %61

61:                                               ; preds = %49
  %62 = load ptr, ptr %4, align 8
  %63 = load ptr, ptr %21, align 8
  %64 = getelementptr i8, ptr %63, i64 8
  %.val54 = load ptr, ptr %64, align 8
  %65 = getelementptr inbounds i32, ptr %.val54, i64 %57
  %66 = load i32, ptr %65, align 4
  %67 = tail call ptr @Cudd_bddIthVar(ptr noundef %62, i32 noundef %66) #12
  %68 = load ptr, ptr %4, align 8
  %69 = tail call ptr @Cudd_bddAnd(ptr noundef %68, ptr noundef %.262, ptr noundef %67) #12
  tail call void @Cudd_Ref(ptr noundef %69) #12
  %70 = load ptr, ptr %4, align 8
  tail call void @Cudd_RecursiveDeref(ptr noundef %70, ptr noundef %.262) #12
  %.pre70 = load ptr, ptr %16, align 8
  br label %.critedge

.critedge:                                        ; preds = %49, %61
  %71 = phi ptr [ %50, %49 ], [ %.pre70, %61 ]
  %.3 = phi ptr [ %.262, %49 ], [ %69, %61 ]
  %indvars.iv.next68 = add nuw nsw i64 %indvars.iv67, 1
  %72 = getelementptr i8, ptr %71, i64 4
  %.val = load i32, ptr %72, align 4
  %73 = sext i32 %.val to i64
  %74 = icmp slt i64 %indvars.iv.next68, %73
  br i1 %74, label %49, label %.critedge2, !llvm.loop !16

.critedge2:                                       ; preds = %.critedge, %.critedge.preheader
  %.2.lcssa = phi ptr [ %.045.lcssa, %.critedge.preheader ], [ %.3, %.critedge ]
  tail call void @Cudd_Deref(ptr noundef %.2.lcssa) #12
  %75 = load ptr, ptr %4, align 8
  %76 = getelementptr inbounds nuw i8, ptr %75, i64 752
  store i64 %7, ptr %76, align 8
  ret ptr %.2.lcssa
}